target datalayout = "e-m:e-p270:32:32-p271:32:32-p272:64:64-i64:64-i128:128-f80:128-n8:16:32:64-S128"
target triple = "x86_64-pc-linux-gnu"

%struct._drda_pdu_info_t = type { i32, i32, i32, i32 }

@hf_drda_param_length = internal global i32 0, align 4
@hf_drda_null_ind = internal global i32 0, align 4
@hf_drda_clob_length = internal global i32 0, align 4
@hf_drda_sqlstatement = internal global i32 0, align 4

; Function Attrs: null_pointer_is_valid sspstrong uwtable
define internal i32 @dissect_fdoca_nocs(ptr noundef %0, i32 noundef %1, ptr noundef %2, i32 noundef %3, ptr noundef %4) #0 {
  %6 = alloca ptr, align 8
  %7 = alloca i32, align 4
  %8 = alloca ptr, align 8
  %9 = alloca i32, align 4
  %10 = alloca ptr, align 8
  %11 = alloca i32, align 4
  %12 = alloca i32, align 4
  store ptr %0, ptr %6, align 8
  store i32 %1, ptr %7, align 4
  store ptr %2, ptr %8, align 8
  store i32 %3, ptr %9, align 4
  store ptr %4, ptr %10, align 8
  call void @llvm.lifetime.start.p0(i64 4, ptr %11) #9
  call void @llvm.lifetime.start.p0(i64 4, ptr %12) #9
  %13 = load ptr, ptr %6, align 8
  %14 = load i32, ptr @hf_drda_null_ind, align 4
  %15 = load ptr, ptr %8, align 8
  %16 = load i32, ptr %9, align 4
  %17 = call ptr @proto_tree_add_item_ret_uint(ptr noundef %13, i32 noundef %14, ptr noundef %15, i32 noundef %16, i32 noundef 1, i32 noundef 0, ptr noundef %11)
  %18 = load i32, ptr %9, align 4
  %19 = add i32 %18, 1
  store i32 %19, ptr %9, align 4
  %20 = load i32, ptr %11, align 4
  %21 = trunc i32 %20 to i8
  %22 = sext i8 %21 to i32
  %23 = icmp sge i32 %22, 0
  br i1 %23, label %24, label %44

24:                                               ; preds = %5
  %25 = load ptr, ptr %6, align 8
  %26 = load i32, ptr @hf_drda_clob_length, align 4
  %27 = load ptr, ptr %8, align 8
  %28 = load i32, ptr %9, align 4
  %29 = call ptr @proto_tree_add_item_ret_uint(ptr noundef %25, i32 noundef %26, ptr noundef %27, i32 noundef %28, i32 noundef 4, i32 noundef 0, ptr noundef %12)
  %30 = load i32, ptr %9, align 4
  %31 = add i32 %30, 4
  store i32 %31, ptr %9, align 4
  %32 = load ptr, ptr %6, align 8
  %33 = load i32, ptr %7, align 4
  %34 = load ptr, ptr %8, align 8
  %35 = load i32, ptr %9, align 4
  %36 = load i32, ptr %12, align 4
  %37 = load ptr, ptr %10, align 8
  %38 = getelementptr inbounds nuw %struct._drda_pdu_info_t, ptr %37, i32 0, i32 2
  %39 = load i32, ptr %38, align 4
  %40 = call ptr @proto_tree_add_item(ptr noundef %32, i32 noundef %33, ptr noundef %34, i32 noundef %35, i32 noundef %36, i32 noundef %39)
  %41 = load i32, ptr %12, align 4
  %42 = load i32, ptr %9, align 4
  %43 = add i32 %42, %41
  store i32 %43, ptr %9, align 4
  br label %44

44:                                               ; preds = %24, %5
  %45 = load i32, ptr %9, align 4
  call void @llvm.lifetime.end.p0(i64 4, ptr %12) #9
  call void @llvm.lifetime.end.p0(i64 4, ptr %11) #9
  ret i32 %45
}

; Function Attrs: null_pointer_is_valid sspstrong uwtable
define internal i32 @dissect_fdoca_nocm(ptr noundef %0, i32 noundef %1, ptr noundef %2, i32 noundef %3, ptr noundef %4) #0 {
  %6 = alloca ptr, align 8
  %7 = alloca i32, align 4
  %8 = alloca ptr, align 8
  %9 = alloca i32, align 4
  %10 = alloca ptr, align 8
  %11 = alloca i32, align 4
  %12 = alloca i32, align 4
  store ptr %0, ptr %6, align 8
  store i32 %1, ptr %7, align 4
  store ptr %2, ptr %8, align 8
  store i32 %3, ptr %9, align 4
  store ptr %4, ptr %10, align 8
  call void @llvm.lifetime.start.p0(i64 4, ptr %11) #9
  call void @llvm.lifetime.start.p0(i64 4, ptr %12) #9
  %13 = load ptr, ptr %6, align 8
  %14 = load i32, ptr @hf_drda_null_ind, align 4
  %15 = load ptr, ptr %8, align 8
  %16 = load i32, ptr %9, align 4
  %17 = call ptr @proto_tree_add_item_ret_uint(ptr noundef %13, i32 noundef %14, ptr noundef %15, i32 noundef %16, i32 noundef 1, i32 noundef 0, ptr noundef %11)
  %18 = load i32, ptr %9, align 4
  %19 = add i32 %18, 1
  store i32 %19, ptr %9, align 4
  %20 = load i32, ptr %11, align 4
  %21 = trunc i32 %20 to i8
  %22 = sext i8 %21 to i32
  %23 = icmp sge i32 %22, 0
  br i1 %23, label %24, label %44

24:                                               ; preds = %5
  %25 = load ptr, ptr %6, align 8
  %26 = load i32, ptr @hf_drda_clob_length, align 4
  %27 = load ptr, ptr %8, align 8
  %28 = load i32, ptr %9, align 4
  %29 = call ptr @proto_tree_add_item_ret_uint(ptr noundef %25, i32 noundef %26, ptr noundef %27, i32 noundef %28, i32 noundef 4, i32 noundef 0, ptr noundef %12)
  %30 = load i32, ptr %9, align 4
  %31 = add i32 %30, 4
  store i32 %31, ptr %9, align 4
  %32 = load ptr, ptr %6, align 8
  %33 = load i32, ptr %7, align 4
  %34 = load ptr, ptr %8, align 8
  %35 = load i32, ptr %9, align 4
  %36 = load i32, ptr %12, align 4
  %37 = load ptr, ptr %10, align 8
  %38 = getelementptr inbounds nuw %struct._drda_pdu_info_t, ptr %37, i32 0, i32 3
  %39 = load i32, ptr %38, align 4
  %40 = call ptr @proto_tree_add_item(ptr noundef %32, i32 noundef %33, ptr noundef %34, i32 noundef %35, i32 noundef %36, i32 noundef %39)
  %41 = load i32, ptr %12, align 4
  %42 = load i32, ptr %9, align 4
  %43 = add i32 %42, %41
  store i32 %43, ptr %9, align 4
  br label %44

44:                                               ; preds = %24, %5
  %45 = load i32, ptr %9, align 4
  call void @llvm.lifetime.end.p0(i64 4, ptr %12) #9
  call void @llvm.lifetime.end.p0(i64 4, ptr %11) #9
  ret i32 %45
}

; Function Attrs: null_pointer_is_valid sspstrong uwtable
define internal i32 @dissect_fdoca_vcs(ptr noundef %0, i32 noundef %1, ptr noundef %2, i32 noundef %3, ptr noundef %4) #0 {
  %6 = alloca ptr, align 8
  %7 = alloca i32, align 4
  %8 = alloca ptr, align 8
  %9 = alloca i32, align 4
  %10 = alloca ptr, align 8
  %11 = alloca i32, align 4
  store ptr %0, ptr %6, align 8
  store i32 %1, ptr %7, align 4
  store ptr %2, ptr %8, align 8
  store i32 %3, ptr %9, align 4
  store ptr %4, ptr %10, align 8
  call void @llvm.lifetime.start.p0(i64 4, ptr %11) #9
  %12 = load ptr, ptr %6, align 8
  %13 = load i32, ptr @hf_drda_param_length, align 4
  %14 = load ptr, ptr %8, align 8
  %15 = load i32, ptr %9, align 4
  %16 = call ptr @proto_tree_add_item_ret_uint(ptr noundef %12, i32 noundef %13, ptr noundef %14, i32 noundef %15, i32 noundef 2, i32 noundef 0, ptr noundef %11)
  %17 = load i32, ptr %9, align 4
  %18 = add i32 %17, 2
  store i32 %18, ptr %9, align 4
  %19 = load ptr, ptr %6, align 8
  %20 = load i32, ptr %7, align 4
  %21 = load ptr, ptr %8, align 8
  %22 = load i32, ptr %9, align 4
  %23 = load i32, ptr %11, align 4
  %24 = load ptr, ptr %10, align 8
  %25 = getelementptr inbounds nuw %struct._drda_pdu_info_t, ptr %24, i32 0, i32 2
  %26 = load i32, ptr %25, align 4
  %27 = call ptr @proto_tree_add_item(ptr noundef %19, i32 noundef %20, ptr noundef %21, i32 noundef %22, i32 noundef %23, i32 noundef %26)
  %28 = load i32, ptr %9, align 4
  %29 = load i32, ptr %11, align 4
  %30 = add i32 %28, %29
  call void @llvm.lifetime.end.p0(i64 4, ptr %11) #9
  ret i32 %30
}

; Function Attrs: null_pointer_is_valid sspstrong uwtable
define internal i32 @dissect_fdoca_vcm(ptr noundef %0, i32 noundef %1, ptr noundef %2, i32 noundef %3, ptr noundef %4) #0 {
  %6 = alloca ptr, align 8
  %7 = alloca i32, align 4
  %8 = alloca ptr, align 8
  %9 = alloca i32, align 4
  %10 = alloca ptr, align 8
  %11 = alloca i32, align 4
  store ptr %0, ptr %6, align 8
  store i32 %1, ptr %7, align 4
  store ptr %2, ptr %8, align 8
  store i32 %3, ptr %9, align 4
  store ptr %4, ptr %10, align 8
  call void @llvm.lifetime.start.p0(i64 4, ptr %11) #9
  %12 = load ptr, ptr %6, align 8
  %13 = load i32, ptr @hf_drda_param_length, align 4
  %14 = load ptr, ptr %8, align 8
  %15 = load i32, ptr %9, align 4
  %16 = call ptr @proto_tree_add_item_ret_uint(ptr noundef %12, i32 noundef %13, ptr noundef %14, i32 noundef %15, i32 noundef 2, i32 noundef 0, ptr noundef %11)
  %17 = load i32, ptr %9, align 4
  %18 = add i32 %17, 2
  store i32 %18, ptr %9, align 4
  %19 = load ptr, ptr %6, align 8
  %20 = load i32, ptr %7, align 4
  %21 = load ptr, ptr %8, align 8
  %22 = load i32, ptr %9, align 4
  %23 = load i32, ptr %11, align 4
  %24 = load ptr, ptr %10, align 8
  %25 = getelementptr inbounds nuw %struct._drda_pdu_info_t, ptr %24, i32 0, i32 3
  %26 = load i32, ptr %25, align 4
  %27 = call ptr @proto_tree_add_item(ptr noundef %19, i32 noundef %20, ptr noundef %21, i32 noundef %22, i32 noundef %23, i32 noundef %26)
  %28 = load i32, ptr %9, align 4
  %29 = load i32, ptr %11, align 4
  %30 = add i32 %28, %29
  call void @llvm.lifetime.end.p0(i64 4, ptr %11) #9
  ret i32 %30
}

; Function Attrs: null_pointer_is_valid sspstrong uwtable
define internal i32 @dissect_drda_sqlstt(ptr noundef %0, ptr noundef %1, ptr noundef %2, ptr noundef %3) #0 {
  %5 = alloca ptr, align 8
  %6 = alloca ptr, align 8
  %7 = alloca ptr, align 8
  %8 = alloca ptr, align 8
  %9 = alloca ptr, align 8
  %10 = alloca i32, align 4
  %11 = alloca i32, align 4
  store ptr %0, ptr %5, align 8
  store ptr %1, ptr %6, align 8
  store ptr %2, ptr %7, align 8
  store ptr %3, ptr %8, align 8
  call void @llvm.lifetime.start.p0(i64 8, ptr %9) #9
  %12 = load ptr, ptr %8, align 8
  store ptr %12, ptr %9, align 8
  call void @llvm.lifetime.start.p0(i64 4, ptr %10) #9
  store i32 0, ptr %10, align 4
  call void @llvm.lifetime.start.p0(i64 4, ptr %11) #9
  %13 = load ptr, ptr %5, align 8
  %14 = load i32, ptr %10, align 4
  %15 = call zeroext i16 @tvb_get_ntohs(ptr noundef %13, i32 noundef %14)
  %16 = zext i16 %15 to i32
  store i32 %16, ptr %11, align 4
  %17 = load i32, ptr %11, align 4
  %18 = icmp eq i32 %17, 0
  br i1 %18, label %19, label %25

19:                                               ; preds = %4
  %20 = load ptr, ptr %5, align 8
  %21 = load i32, ptr %10, align 4
  %22 = add i32 %21, 2
  %23 = call zeroext i16 @tvb_get_ntohs(ptr noundef %20, i32 noundef %22)
  %24 = zext i16 %23 to i32
  store i32 %24, ptr %11, align 4
  br label %25

25:                                               ; preds = %19, %4
  %26 = load i32, ptr %11, align 4
  %27 = add i32 %26, 4
  %28 = load ptr, ptr %5, align 8
  %29 = call i32 @tvb_reported_length(ptr noundef %28)
  %30 = icmp eq i32 %27, %29
  br i1 %30, label %31, label %44

31:                                               ; preds = %25
  %32 = load ptr, ptr %7, align 8
  %33 = load i32, ptr @hf_drda_sqlstatement, align 4
  %34 = load ptr, ptr %5, align 8
  %35 = load i32, ptr %10, align 4
  %36 = load ptr, ptr %9, align 8
  %37 = call i32 @dissect_fdoca_vcm(ptr noundef %32, i32 noundef %33, ptr noundef %34, i32 noundef %35, ptr noundef %36)
  store i32 %37, ptr %10, align 4
  %38 = load ptr, ptr %7, align 8
  %39 = load i32, ptr @hf_drda_sqlstatement, align 4
  %40 = load ptr, ptr %5, align 8
  %41 = load i32, ptr %10, align 4
  %42 = load ptr, ptr %9, align 8
  %43 = call i32 @dissect_fdoca_vcs(ptr noundef %38, i32 noundef %39, ptr noundef %40, i32 noundef %41, ptr noundef %42)
  store i32 %43, ptr %10, align 4
  br label %57

44:                                               ; preds = %25
  %45 = load ptr, ptr %7, align 8
  %46 = load i32, ptr @hf_drda_sqlstatement, align 4
  %47 = load ptr, ptr %5, align 8
  %48 = load i32, ptr %10, align 4
  %49 = load ptr, ptr %9, align 8
  %50 = call i32 @dissect_fdoca_nocm(ptr noundef %45, i32 noundef %46, ptr noundef %47, i32 noundef %48, ptr noundef %49)
  store i32 %50, ptr %10, align 4
  %51 = load ptr, ptr %7, align 8
  %52 = load i32, ptr @hf_drda_sqlstatement, align 4
  %53 = load ptr, ptr %5, align 8
  %54 = load i32, ptr %10, align 4
  %55 = load ptr, ptr %9, align 8
  %56 = call i32 @dissect_fdoca_nocs(ptr noundef %51, i32 noundef %52, ptr noundef %53, i32 noundef %54, ptr noundef %55)
  store i32 %56, ptr %10, align 4
  br label %57

57:                                               ; preds = %44, %31
  %58 = load i32, ptr %10, align 4
  call void @llvm.lifetime.end.p0(i64 4, ptr %11) #9
  call void @llvm.lifetime.end.p0(i64 4, ptr %10) #9
  call void @llvm.lifetime.end.p0(i64 8, ptr %9) #9
  ret i32 %58
}