; Function Attrs: null_pointer_is_valid sspstrong uwtable
define internal i32 @dissect_drda_sqlstt(ptr noundef %0, ptr readnone captures(none) %1, ptr noundef %2, ptr noundef readonly captures(none) %3) #0 {
  %5 = alloca i32, align 4
  %6 = alloca i32, align 4
  %7 = alloca i32, align 4
  %8 = alloca i32, align 4
  %9 = alloca i32, align 4
  %10 = alloca i32, align 4
  %11 = tail call zeroext i16 @tvb_get_ntohs(ptr noundef %0, i32 noundef 0)
  %12 = icmp eq i16 %11, 0
  br i1 %12, label %13, label %15

13:                                               ; preds = %4
  %14 = tail call zeroext i16 @tvb_get_ntohs(ptr noundef %0, i32 noundef 2)
  br label %15

15:                                               ; preds = %13, %4
  %.0.in = phi i16 [ %14, %13 ], [ %11, %4 ]
  %.0 = zext i16 %.0.in to i32
  %16 = add nuw nsw i32 %.0, 4
  %17 = tail call i32 @tvb_reported_length(ptr noundef %0)
  %18 = icmp eq i32 %16, %17
  %19 = load i32, ptr @hf_drda_sqlstatement, align 4
  br i1 %18, label %20, label %39

20:                                               ; preds = %15
  call void @llvm.lifetime.start.p0(i64 4, ptr nonnull %10) #8
  %21 = load i32, ptr @hf_drda_param_length, align 4
  %22 = call ptr @proto_tree_add_item_ret_uint(ptr noundef %2, i32 noundef %21, ptr noundef %0, i32 noundef 0, i32 noundef 2, i32 noundef 0, ptr noundef nonnull %10)
  %23 = load i32, ptr %10, align 4
  %24 = getelementptr inbounds nuw i8, ptr %3, i64 12
  %25 = load i32, ptr %24, align 4
  %26 = call ptr @proto_tree_add_item(ptr noundef %2, i32 noundef %19, ptr noundef %0, i32 noundef 2, i32 noundef %23, i32 noundef %25)
  %27 = load i32, ptr %10, align 4
  %28 = add i32 %27, 2
  call void @llvm.lifetime.end.p0(i64 4, ptr nonnull %10) #8
  %29 = load i32, ptr @hf_drda_sqlstatement, align 4
  call void @llvm.lifetime.start.p0(i64 4, ptr nonnull %9) #8
  %30 = load i32, ptr @hf_drda_param_length, align 4
  %31 = call ptr @proto_tree_add_item_ret_uint(ptr noundef %2, i32 noundef %30, ptr noundef %0, i32 noundef %28, i32 noundef 2, i32 noundef 0, ptr noundef nonnull %9)
  %32 = add i32 %27, 4
  %33 = load i32, ptr %9, align 4
  %34 = getelementptr inbounds nuw i8, ptr %3, i64 8
  %35 = load i32, ptr %34, align 4
  %36 = call ptr @proto_tree_add_item(ptr noundef %2, i32 noundef %29, ptr noundef %0, i32 noundef %32, i32 noundef %33, i32 noundef %35)
  %37 = load i32, ptr %9, align 4
  %38 = add i32 %37, %32
  call void @llvm.lifetime.end.p0(i64 4, ptr nonnull %9) #8
  br label %69

39:                                               ; preds = %15
  call void @llvm.lifetime.start.p0(i64 4, ptr nonnull %7) #8
  call void @llvm.lifetime.start.p0(i64 4, ptr nonnull %8) #8
  %40 = load i32, ptr @hf_drda_null_ind, align 4
  %41 = call ptr @proto_tree_add_item_ret_uint(ptr noundef %2, i32 noundef %40, ptr noundef %0, i32 noundef 0, i32 noundef 1, i32 noundef 0, ptr noundef nonnull %7)
  %42 = load i32, ptr %7, align 4
  %sext.mask.i = and i32 %42, 128
  %43 = icmp eq i32 %sext.mask.i, 0
  br i1 %43, label %44, label %dissect_fdoca_nocm.exit

44:                                               ; preds = %39
  %45 = load i32, ptr @hf_drda_clob_length, align 4
  %46 = call ptr @proto_tree_add_item_ret_uint(ptr noundef %2, i32 noundef %45, ptr noundef %0, i32 noundef 1, i32 noundef 4, i32 noundef 0, ptr noundef nonnull %8)
  %47 = load i32, ptr %8, align 4
  %48 = getelementptr inbounds nuw i8, ptr %3, i64 12
  %49 = load i32, ptr %48, align 4
  %50 = call ptr @proto_tree_add_item(ptr noundef %2, i32 noundef %19, ptr noundef %0, i32 noundef 5, i32 noundef %47, i32 noundef %49)
  %51 = load i32, ptr %8, align 4
  %52 = add i32 %51, 5
  br label %dissect_fdoca_nocm.exit

dissect_fdoca_nocm.exit:                          ; preds = %39, %44
  %.0.i = phi i32 [ %52, %44 ], [ 1, %39 ]
  call void @llvm.lifetime.end.p0(i64 4, ptr nonnull %8) #8
  call void @llvm.lifetime.end.p0(i64 4, ptr nonnull %7) #8
  %53 = load i32, ptr @hf_drda_sqlstatement, align 4
  call void @llvm.lifetime.start.p0(i64 4, ptr nonnull %5) #8
  call void @llvm.lifetime.start.p0(i64 4, ptr nonnull %6) #8
  %54 = load i32, ptr @hf_drda_null_ind, align 4
  %55 = call ptr @proto_tree_add_item_ret_uint(ptr noundef %2, i32 noundef %54, ptr noundef %0, i32 noundef %.0.i, i32 noundef 1, i32 noundef 0, ptr noundef nonnull %5)
  %56 = add i32 %.0.i, 1
  %57 = load i32, ptr %5, align 4
  %sext.mask.i26 = and i32 %57, 128
  %58 = icmp eq i32 %sext.mask.i26, 0
  br i1 %58, label %59, label %dissect_fdoca_nocs.exit

59:                                               ; preds = %dissect_fdoca_nocm.exit
  %60 = load i32, ptr @hf_drda_clob_length, align 4
  %61 = call ptr @proto_tree_add_item_ret_uint(ptr noundef %2, i32 noundef %60, ptr noundef %0, i32 noundef %56, i32 noundef 4, i32 noundef 0, ptr noundef nonnull %6)
  %62 = add i32 %.0.i, 5
  %63 = load i32, ptr %6, align 4
  %64 = getelementptr inbounds nuw i8, ptr %3, i64 8
  %65 = load i32, ptr %64, align 4
  %66 = call ptr @proto_tree_add_item(ptr noundef %2, i32 noundef %53, ptr noundef %0, i32 noundef %62, i32 noundef %63, i32 noundef %65)
  %67 = load i32, ptr %6, align 4
  %68 = add i32 %67, %62
  br label %dissect_fdoca_nocs.exit

dissect_fdoca_nocs.exit:                          ; preds = %dissect_fdoca_nocm.exit, %59
  %.0.i27 = phi i32 [ %68, %59 ], [ %56, %dissect_fdoca_nocm.exit ]
  call void @llvm.lifetime.end.p0(i64 4, ptr nonnull %6) #8
  call void @llvm.lifetime.end.p0(i64 4, ptr nonnull %5) #8
  br label %69

69:                                               ; preds = %dissect_fdoca_nocs.exit, %20
  %.024 = phi i32 [ %38, %20 ], [ %.0.i27, %dissect_fdoca_nocs.exit ]
  ret i32 %.024
}